(dp1
S'Kinect'
p2
(dp3
S'test'
p4
(dp5
S'ECO'
p6
(dp7
S'nrmse'
p8
F0.025000000000000001
sS'corr'
p9
F0.050000000000000003
sS'rmse'
p10
F0.050000000000000003
ssS'COC'
p11
(dp12
g8
Nsg9
Nsg10
NssS'EC'
p13
(dp14
g8
F0.025000000000000001
sg9
F0.025000000000000001
sg10
F0.025000000000000001
sssS'train'
p15
(dp16
g6
(dp17
g8
F0.025000000000000001
sg9
F0.025000000000000001
sg10
F0.025000000000000001
ssg11
(dp18
g8
F0.025000000000000001
sg9
F0.025000000000000001
sg10
F0.025000000000000001
ssg13
(dp19
g8
F0.025000000000000001
sg9
F0.025000000000000001
sg10
F0.025000000000000001
ssssS'Mocap'
p20
(dp21
g4
(dp22
S'MT'
p23
(dp24
g8
F0.025000000000000001
sg9
F0.025000000000000001
sg10
F0.025000000000000001
ssS'CPT'
p25
(dp26
g8
F0.025000000000000001
sg9
F0.025000000000000001
sg10
F0.025000000000000001
ssS'CPM'
p27
(dp28
g8
F0.025000000000000001
sg9
F0.025000000000000001
sg10
F0.025000000000000001
sssg15
(dp29
g23
(dp30
g8
F0.025000000000000001
sg9
F0.025000000000000001
sg10
F0.025000000000000001
ssg25
(dp31
g8
F0.025000000000000001
sg9
F0.025000000000000001
sg10
F0.025000000000000001
ssg27
(dp32
g8
F0.025000000000000001
sg9
F0.025000000000000001
sg10
F0.025000000000000001
ssss.